; Function Attrs: mustprogress uwtable
define void @_ZN5boost3log11v2_mt_posix4core21set_global_attributesERKNS1_13attribute_setE(ptr nocapture noundef nonnull readonly align 8 dereferenceable(8) %0, ptr noundef nonnull align 8 dereferenceable(8) %1) local_unnamed_addr #4 align 2 personality ptr @__gxx_personality_v0 {
  %3 = alloca %"class.boost::log::v2_mt_posix::attribute_set", align 8
  %4 = load ptr, ptr %0, align 8, !tbaa !33
  %5 = tail call i32 @pthread_rwlock_wrlock(ptr noundef nonnull align 8 dereferenceable(56) %4) #21
  invoke void @_ZN5boost3log11v2_mt_posix13attribute_setC1ERKS2_(ptr noundef nonnull align 8 dereferenceable(8) %3, ptr noundef nonnull align 8 dereferenceable(8) %1)
          to label %6 unwind label %12

6:                                                ; preds = %2
  %7 = load ptr, ptr %0, align 8, !tbaa !33
  %8 = getelementptr inbounds nuw i8, ptr %7, i64 96
  %9 = load ptr, ptr %8, align 8, !tbaa !74
  %10 = load ptr, ptr %3, align 8, !tbaa !74
  store ptr %10, ptr %8, align 8, !tbaa !74
  store ptr %9, ptr %3, align 8, !tbaa !74
  call void @_ZN5boost3log11v2_mt_posix13attribute_setD1Ev(ptr noundef nonnull align 8 dereferenceable(8) %3) #21
  %11 = call i32 @pthread_rwlock_unlock(ptr noundef nonnull align 8 dereferenceable(56) %4) #21
  ret void

12:                                               ; preds = %2
  %13 = landingpad { ptr, i32 }
          cleanup
  %14 = call i32 @pthread_rwlock_unlock(ptr noundef nonnull align 8 dereferenceable(56) %4) #21
  resume { ptr, i32 } %13
}